target datalayout = "e-m:e-p270:32:32-p271:32:32-p272:64:64-i64:64-i128:128-f80:128-n8:16:32:64-S128"
target triple = "x86_64-pc-linux-gnu"

%struct.Expr_ = type { ptr, %union.SourceSpan, i16, %union.anon.29 }
%union.SourceSpan = type { i64 }
%union.anon.29 = type { %struct.ExprAnySwitch }
%struct.ExprAnySwitch = type { i8, %union.anon.31 }
%union.anon.31 = type { %struct.anon.32 }
%struct.anon.32 = type { ptr, %union.SourceSpan, ptr }
%struct.ExprConst = type { i16, %union.anon.38 }
%union.anon.38 = type { %struct.Int }
%struct.Int = type { %struct.Int128_, i32 }
%struct.Int128_ = type { i64, i64 }

@type_usz = external global ptr, align 8
@.str.68 = private unnamed_addr constant [52 x i8] c"Expected a constant power-of-two alignment or zero.\00", align 1

; Function Attrs: nounwind uwtable
define internal zeroext i1 @is_power_of_two(i64 noundef %0) #0 {
  %2 = alloca i64, align 8
  store i64 %0, ptr %2, align 8
  %3 = load i64, ptr %2, align 8
  %4 = icmp ne i64 %3, 0
  br i1 %4, label %5, label %11

5:                                                ; preds = %1
  %6 = load i64, ptr %2, align 8
  %7 = load i64, ptr %2, align 8
  %8 = sub i64 %7, 1
  %9 = and i64 %6, %8
  %10 = icmp eq i64 %9, 0
  br label %11

11:                                               ; preds = %5, %1
  %12 = phi i1 [ false, %1 ], [ %10, %5 ]
  ret i1 %12
}

; Function Attrs: nounwind uwtable
define internal zeroext i1 @sema_check_alignment_expression(ptr noundef %0, ptr noundef %1) #0 {
  %3 = alloca ptr, align 8
  %4 = alloca i1, align 1
  %5 = alloca ptr, align 8
  %6 = alloca ptr, align 8
  store ptr %0, ptr %5, align 8
  store ptr %1, ptr %6, align 8
  %7 = load ptr, ptr %5, align 8
  %8 = load ptr, ptr @type_usz, align 8
  %9 = load ptr, ptr %6, align 8
  %10 = call zeroext i1 @sema_analyse_expr_rhs(ptr noundef %7, ptr noundef %8, ptr noundef %9, i1 noundef zeroext false, ptr noundef null)
  br i1 %10, label %12, label %11

11:                                               ; preds = %2
  store i1 false, ptr %4, align 1
  br label %58

12:                                               ; preds = %2
  %13 = load ptr, ptr %6, align 8
  store ptr %13, ptr %3, align 8
  %14 = load ptr, ptr %3, align 8
  %15 = getelementptr inbounds %struct.Expr_, ptr %14, i32 0, i32 2
  %16 = load i16, ptr %15, align 8
  %17 = and i16 %16, 255
  %18 = zext i16 %17 to i32
  %19 = icmp eq i32 %18, 14
  br i1 %19, label %20, label %27

20:                                               ; preds = %12
  %21 = load ptr, ptr %3, align 8
  %22 = getelementptr inbounds %struct.Expr_, ptr %21, i32 0, i32 3
  %23 = load i16, ptr %22, align 8
  %24 = and i16 %23, 255
  %25 = zext i16 %24 to i32
  %26 = icmp eq i32 %25, 1
  br label %27

27:                                               ; preds = %20, %12
  %28 = phi i1 [ false, %12 ], [ %26, %20 ]
  br i1 %28, label %29, label %50

29:                                               ; preds = %27
  %30 = load ptr, ptr %6, align 8
  %31 = getelementptr inbounds %struct.Expr_, ptr %30, i32 0, i32 3
  %32 = getelementptr inbounds %struct.ExprConst, ptr %31, i32 0, i32 1
  %33 = call zeroext i1 @int_fits(ptr noundef byval(%struct.Int) align 8 %32, i32 noundef 11)
  br i1 %33, label %34, label %50

34:                                               ; preds = %29
  %35 = load ptr, ptr %6, align 8
  %36 = getelementptr inbounds %struct.Expr_, ptr %35, i32 0, i32 3
  %37 = getelementptr inbounds %struct.ExprConst, ptr %36, i32 0, i32 1
  %38 = getelementptr inbounds %struct.Int, ptr %37, i32 0, i32 0
  %39 = getelementptr inbounds %struct.Int128_, ptr %38, i32 0, i32 1
  %40 = load i64, ptr %39, align 8
  %41 = call zeroext i1 @is_power_of_two(i64 noundef %40)
  br i1 %41, label %57, label %42

42:                                               ; preds = %34
  %43 = load ptr, ptr %6, align 8
  %44 = getelementptr inbounds %struct.Expr_, ptr %43, i32 0, i32 3
  %45 = getelementptr inbounds %struct.ExprConst, ptr %44, i32 0, i32 1
  %46 = getelementptr inbounds %struct.Int, ptr %45, i32 0, i32 0
  %47 = getelementptr inbounds %struct.Int128_, ptr %46, i32 0, i32 1
  %48 = load i64, ptr %47, align 8
  %49 = icmp ne i64 %48, 0
  br i1 %49, label %50, label %57

50:                                               ; preds = %42, %29, %27
  br label %51

51:                                               ; preds = %50
  %52 = load ptr, ptr %6, align 8
  %53 = getelementptr inbounds %struct.Expr_, ptr %52, i32 0, i32 1
  %54 = getelementptr inbounds %union.SourceSpan, ptr %53, i32 0, i32 0
  %55 = load i64, ptr %54, align 8
  call void (i64, ptr, ...) @sema_error_at(i64 %55, ptr noundef @.str.68)
  store i1 false, ptr %4, align 1
  br label %58

56:                                               ; No predecessors!
  br label %57

57:                                               ; preds = %56, %42, %34
  store i1 true, ptr %4, align 1
  br label %58

58:                                               ; preds = %57, %51, %11
  %59 = load i1, ptr %4, align 1
  ret i1 %59
}