; Function Attrs: nounwind uwtable
define internal fastcc noundef zeroext i1 @sema_check_alignment_expression(ptr noundef %0, ptr noundef %1) unnamed_addr #0 {
  %3 = load ptr, ptr @type_usz, align 8
  %4 = tail call zeroext i1 @sema_analyse_expr_rhs(ptr noundef %0, ptr noundef %3, ptr noundef %1, i1 noundef zeroext false, ptr noundef null) #4
  br i1 %4, label %5, label %.thread

5:                                                ; preds = %2
  %6 = getelementptr inbounds i8, ptr %1, i64 16
  %7 = load i16, ptr %6, align 8
  %8 = and i16 %7, 255
  %9 = icmp eq i16 %8, 14
  br i1 %9, label %10, label %.critedge

10:                                               ; preds = %5
  %11 = getelementptr inbounds i8, ptr %1, i64 24
  %12 = load i16, ptr %11, align 8
  %13 = and i16 %12, 255
  %14 = icmp eq i16 %13, 1
  br i1 %14, label %15, label %.critedge

15:                                               ; preds = %10
  %16 = getelementptr inbounds i8, ptr %1, i64 32
  %17 = tail call zeroext i1 @int_fits(ptr noundef nonnull byval(%struct.Int) align 8 %16, i32 noundef 11) #4
  br i1 %17, label %18, label %.critedge

18:                                               ; preds = %15
  %19 = getelementptr inbounds i8, ptr %1, i64 40
  %20 = load i64, ptr %19, align 8
  %21 = tail call i64 @llvm.ctpop.i64(i64 %20), !range !19
  %22 = icmp ult i64 %21, 2
  br i1 %22, label %.thread, label %.critedge

.critedge:                                        ; preds = %18, %10, %15, %5
  %23 = getelementptr inbounds i8, ptr %1, i64 8
  %24 = load i64, ptr %23, align 8
  tail call void (i64, ptr, ...) @sema_error_at(i64 %24, ptr noundef nonnull @.str.68) #4
  br label %.thread

.thread:                                          ; preds = %18, %2, %.critedge
  %.0 = phi i1 [ false, %.critedge ], [ false, %2 ], [ true, %18 ]
  ret i1 %.0
}